target datalayout = "e-m:e-p270:32:32-p271:32:32-p272:64:64-i64:64-i128:128-f80:128-n8:16:32:64-S128"
target triple = "x86_64-pc-linux-gnu"

; Function Attrs: mustprogress nounwind uwtable
define noundef zeroext i1 @_ZN7glslang14TParseVersions18extensionsTurnedOnEiPKPKc(ptr noundef nonnull align 8 dereferenceable(224) %0, i32 noundef %1, ptr noundef %2) unnamed_addr #0 align 2 {
  %4 = alloca i1, align 1
  %5 = alloca ptr, align 8
  %6 = alloca i32, align 4
  %7 = alloca ptr, align 8
  %8 = alloca i32, align 4
  store ptr %0, ptr %5, align 8
  store i32 %1, ptr %6, align 4
  store ptr %2, ptr %7, align 8
  %9 = load ptr, ptr %5, align 8
  store i32 0, ptr %8, align 4
  br label %10

10:                                               ; preds = %26, %3
  %11 = load i32, ptr %8, align 4
  %12 = load i32, ptr %6, align 4
  %13 = icmp slt i32 %11, %12
  br i1 %13, label %14, label %29

14:                                               ; preds = %10
  %15 = load ptr, ptr %7, align 8
  %16 = load i32, ptr %8, align 4
  %17 = sext i32 %16 to i64
  %18 = getelementptr inbounds ptr, ptr %15, i64 %17
  %19 = load ptr, ptr %18, align 8
  %20 = load ptr, ptr %9, align 8
  %21 = getelementptr inbounds ptr, ptr %20, i64 8
  %22 = load ptr, ptr %21, align 8
  %23 = call noundef zeroext i1 %22(ptr noundef nonnull align 8 dereferenceable(224) %9, ptr noundef %19)
  br i1 %23, label %24, label %25

24:                                               ; preds = %14
  store i1 true, ptr %4, align 1
  br label %30

25:                                               ; preds = %14
  br label %26

26:                                               ; preds = %25
  %27 = load i32, ptr %8, align 4
  %28 = add nsw i32 %27, 1
  store i32 %28, ptr %8, align 4
  br label %10, !llvm.loop !11

29:                                               ; preds = %10
  store i1 false, ptr %4, align 1
  br label %30

30:                                               ; preds = %29, %24
  %31 = load i1, ptr %4, align 1
  ret i1 %31
}