; Function Attrs: mustprogress nounwind uwtable
define noundef zeroext i1 @_ZN7glslang14TParseVersions18extensionsTurnedOnEiPKPKc(ptr noundef nonnull align 8 dereferenceable(224) %0, i32 noundef %1, ptr nocapture noundef readonly %2) unnamed_addr #0 align 2 {
  %4 = icmp sgt i32 %1, 0
  br i1 %4, label %.lr.ph.preheader, label %._crit_edge

.lr.ph.preheader:                                 ; preds = %3
  %5 = zext nneg i32 %1 to i64
  %wide.trip.count = zext nneg i32 %1 to i64
  %6 = load ptr, ptr %2, align 8
  %7 = load ptr, ptr %0, align 8
  %8 = getelementptr inbounds i8, ptr %7, i64 64
  %9 = load ptr, ptr %8, align 8
  %10 = tail call noundef zeroext i1 %9(ptr noundef nonnull align 8 dereferenceable(224) %0, ptr noundef %6) #15
  br i1 %10, label %._crit_edge, label %.lr.ph11

.lr.ph11:                                         ; preds = %.lr.ph.preheader, %.lr.ph
  %indvars.iv10 = phi i64 [ %indvars.iv.next, %.lr.ph ], [ 0, %.lr.ph.preheader ]
  %indvars.iv.next = add nuw nsw i64 %indvars.iv10, 1
  %exitcond.not = icmp eq i64 %indvars.iv.next, %wide.trip.count
  br i1 %exitcond.not, label %._crit_edge.loopexit, label %.lr.ph, !llvm.loop !31

.lr.ph:                                           ; preds = %.lr.ph11
  %11 = getelementptr inbounds ptr, ptr %2, i64 %indvars.iv.next
  %12 = load ptr, ptr %11, align 8
  %13 = load ptr, ptr %0, align 8
  %14 = getelementptr inbounds i8, ptr %13, i64 64
  %15 = load ptr, ptr %14, align 8
  %16 = tail call noundef zeroext i1 %15(ptr noundef nonnull align 8 dereferenceable(224) %0, ptr noundef %12) #15
  br i1 %16, label %._crit_edge.loopexit, label %.lr.ph11, !llvm.loop !31

._crit_edge.loopexit:                             ; preds = %.lr.ph, %.lr.ph11
  %17 = icmp ult i64 %indvars.iv.next, %5
  br label %._crit_edge

._crit_edge:                                      ; preds = %._crit_edge.loopexit, %.lr.ph.preheader, %3
  %.lcssa = phi i1 [ false, %3 ], [ true, %.lr.ph.preheader ], [ %17, %._crit_edge.loopexit ]
  ret i1 %.lcssa
}